; Function Attrs: mustprogress nofree nounwind willreturn memory(argmem: read) uwtable
define internal fastcc noundef zeroext i1 @_ZL9hasPrefixN4llvm9StringRefES0_(ptr readonly captures(none) %0, i64 %1, ptr readonly captures(none) %2, i64 %3) unnamed_addr #6 {
  %.not.i.i = icmp ult i64 %1, %3
  br i1 %.not.i.i, label %_ZN4llvm9StringRef13consume_frontES0_.exit.thread, label %5

5:                                                ; preds = %4
  %6 = icmp eq i64 %3, 0
  br i1 %6, label %8, label %_ZNK4llvm9StringRef11starts_withES0_.exit.i

_ZNK4llvm9StringRef11starts_withES0_.exit.i:      ; preds = %5
  %bcmp.i.i = tail call i32 @bcmp(ptr %0, ptr %2, i64 %3)
  %7 = icmp eq i32 %bcmp.i.i, 0
  br i1 %7, label %8, label %_ZN4llvm9StringRef13consume_frontES0_.exit.thread

8:                                                ; preds = %_ZNK4llvm9StringRef11starts_withES0_.exit.i, %5
  %9 = icmp eq i64 %1, %3
  br i1 %9, label %_ZN4llvm9StringRef13consume_frontES0_.exit.thread, label %10

10:                                               ; preds = %8
  %11 = getelementptr inbounds i8, ptr %0, i64 %3
  %12 = load i8, ptr %11, align 1
  %13 = icmp eq i8 %12, 46
  br label %_ZN4llvm9StringRef13consume_frontES0_.exit.thread

_ZN4llvm9StringRef13consume_frontES0_.exit.thread: ; preds = %4, %_ZNK4llvm9StringRef11starts_withES0_.exit.i, %8, %10
  %14 = phi i1 [ true, %8 ], [ %13, %10 ], [ false, %_ZNK4llvm9StringRef11starts_withES0_.exit.i ], [ false, %4 ]
  ret i1 %14
}